target datalayout = "e-m:e-p270:32:32-p271:32:32-p272:64:64-i64:64-i128:128-f80:128-n8:16:32:64-S128"
target triple = "x86_64-unknown-linux-gnu"

; Function Attrs: mustprogress uwtable
define linkonce_odr noundef double @_ZNK6icu_758Calendar7getTimeER10UErrorCode(ptr noundef nonnull align 8 dereferenceable(618) %this, ptr noundef nonnull align 4 dereferenceable(4) %status) #1 comdat align 2 {
entry:
  %this.addr = alloca ptr, align 8
  %status.addr = alloca ptr, align 8
  store ptr %this, ptr %this.addr, align 8
  store ptr %status, ptr %status.addr, align 8
  %this1 = load ptr, ptr %this.addr, align 8
  %0 = load ptr, ptr %status.addr, align 8
  %call = call noundef double @_ZNK6icu_758Calendar15getTimeInMillisER10UErrorCode(ptr noundef nonnull align 8 dereferenceable(618) %this1, ptr noundef nonnull align 4 dereferenceable(4) %0)
  ret double %call
}

; Function Attrs: mustprogress nounwind uwtable
define internal noundef signext i8 @_ZL9U_FAILURE10UErrorCode(i32 noundef %code) #0 {
entry:
  %code.addr = alloca i32, align 4
  store i32 %code, ptr %code.addr, align 4
  %0 = load i32, ptr %code.addr, align 4
  %cmp = icmp sgt i32 %0, 0
  %conv = zext i1 %cmp to i8
  ret i8 %conv
}

; Function Attrs: mustprogress uwtable
define double @ucal_getMillis_75(ptr noundef %cal, ptr noundef %status) #1 {
entry:
  %retval = alloca double, align 8
  %cal.addr = alloca ptr, align 8
  %status.addr = alloca ptr, align 8
  store ptr %cal, ptr %cal.addr, align 8
  store ptr %status, ptr %status.addr, align 8
  %0 = load ptr, ptr %status.addr, align 8
  %1 = load i32, ptr %0, align 4
  %call = call noundef signext i8 @_ZL9U_FAILURE10UErrorCode(i32 noundef %1)
  %tobool = icmp ne i8 %call, 0
  br i1 %tobool, label %if.then, label %if.end

if.then:                                          ; preds = %entry
  store double 0.000000e+00, ptr %retval, align 8
  br label %return

if.end:                                           ; preds = %entry
  %2 = load ptr, ptr %cal.addr, align 8
  %3 = load ptr, ptr %status.addr, align 8
  %call1 = call noundef double @_ZNK6icu_758Calendar7getTimeER10UErrorCode(ptr noundef nonnull align 8 dereferenceable(618) %2, ptr noundef nonnull align 4 dereferenceable(4) %3)
  store double %call1, ptr %retval, align 8
  br label %return

return:                                           ; preds = %if.end, %if.then
  %4 = load double, ptr %retval, align 8
  ret double %4
}